ARM GAS  /tmp/cctHSjWL.s 			page 1


   1              		.cpu cortex-m3
   2              		.arch armv7-m
   3              		.fpu softvfp
   4              		.eabi_attribute 20, 1
   5              		.eabi_attribute 21, 1
   6              		.eabi_attribute 23, 3
   7              		.eabi_attribute 24, 1
   8              		.eabi_attribute 25, 1
   9              		.eabi_attribute 26, 1
  10              		.eabi_attribute 30, 1
  11              		.eabi_attribute 34, 1
  12              		.eabi_attribute 18, 4
  13              		.file	"main.c"
  14              		.text
  15              	.Ltext0:
  16              		.cfi_sections	.debug_frame
  17              		.file 1 "Core/Src/main.c"
  18              		.section	.text.MX_GPIO_Init,"ax",%progbits
  19              		.align	1
  20              		.syntax unified
  21              		.thumb
  22              		.thumb_func
  24              	MX_GPIO_Init:
  25              	.LFB71:
   1:Core/Src/main.c **** #include "main.h"
   2:Core/Src/main.c **** #include "usb_device.h"
   3:Core/Src/main.c **** #include "usbd_cdc_if.h"
   4:Core/Src/main.c **** #include <stdio.h>
   5:Core/Src/main.c **** #include <string.h>
   6:Core/Src/main.c **** 
   7:Core/Src/main.c **** TIM_HandleTypeDef htim1;
   8:Core/Src/main.c **** 
   9:Core/Src/main.c **** /* USER CODE BEGIN PV */
  10:Core/Src/main.c **** volatile uint32_t seconds_counter = 0;
  11:Core/Src/main.c **** char* string="Watashiwa Yoshikagi kira\r\n";
  12:Core/Src/main.c **** int string_finished=0;
  13:Core/Src/main.c **** int i=0;
  14:Core/Src/main.c **** /* Private function prototypes -----------------------------------------------*/
  15:Core/Src/main.c **** void SystemClock_Config(void);
  16:Core/Src/main.c **** static void MX_GPIO_Init(void);
  17:Core/Src/main.c **** static void MX_TIM1_Init(void);
  18:Core/Src/main.c **** 
  19:Core/Src/main.c **** int main(void)
  20:Core/Src/main.c **** {
  21:Core/Src/main.c **** 
  22:Core/Src/main.c ****   HAL_Init();
  23:Core/Src/main.c ****   SystemClock_Config();
  24:Core/Src/main.c ****   MX_GPIO_Init();
  25:Core/Src/main.c ****   MX_USB_DEVICE_Init();
  26:Core/Src/main.c ****   MX_TIM1_Init();
  27:Core/Src/main.c **** 
  28:Core/Src/main.c ****   HAL_Delay(1000);
  29:Core/Src/main.c **** 
  30:Core/Src/main.c ****   CDC_Transmit_FS((uint8_t *)"Works!\r\n", 9);
  31:Core/Src/main.c **** 
  32:Core/Src/main.c ****   HAL_TIM_Base_Start_IT(&htim1);
  33:Core/Src/main.c **** 
ARM GAS  /tmp/cctHSjWL.s 			page 2


  34:Core/Src/main.c ****   while (1){
  35:Core/Src/main.c ****     i=0;
  36:Core/Src/main.c ****     while(string_finished==0){
  37:Core/Src/main.c ****       // if(string[i]!="\0"){
  38:Core/Src/main.c ****       if(i<27){
  39:Core/Src/main.c ****         CDC_Transmit_FS((uint8_t*)string[i],1);
  40:Core/Src/main.c ****         i++;
  41:Core/Src/main.c ****       }else{
  42:Core/Src/main.c ****         string_finished=1;
  43:Core/Src/main.c ****       }
  44:Core/Src/main.c ****     }
  45:Core/Src/main.c ****     //CDC_Transmit_FS((uint8_t *)string, 25);
  46:Core/Src/main.c ****     // New String to Send
  47:Core/Src/main.c ****     string_finished=0;
  48:Core/Src/main.c ****     HAL_Delay(500);
  49:Core/Src/main.c ****     
  50:Core/Src/main.c ****   }
  51:Core/Src/main.c **** }
  52:Core/Src/main.c **** 
  53:Core/Src/main.c **** void SystemClock_Config(void)
  54:Core/Src/main.c **** {
  55:Core/Src/main.c ****   RCC_OscInitTypeDef RCC_OscInitStruct = {0};
  56:Core/Src/main.c ****   RCC_ClkInitTypeDef RCC_ClkInitStruct = {0};
  57:Core/Src/main.c ****   RCC_PeriphCLKInitTypeDef PeriphClkInit = {0};
  58:Core/Src/main.c **** 
  59:Core/Src/main.c ****   /** Initializes the RCC Oscillators according to the specified parameters
  60:Core/Src/main.c ****   * in the RCC_OscInitTypeDef structure.
  61:Core/Src/main.c ****   */
  62:Core/Src/main.c ****   RCC_OscInitStruct.OscillatorType = RCC_OSCILLATORTYPE_HSE;
  63:Core/Src/main.c ****   RCC_OscInitStruct.HSEState = RCC_HSE_ON;
  64:Core/Src/main.c ****   RCC_OscInitStruct.HSEPredivValue = RCC_HSE_PREDIV_DIV1;
  65:Core/Src/main.c ****   RCC_OscInitStruct.HSIState = RCC_HSI_ON;
  66:Core/Src/main.c ****   RCC_OscInitStruct.PLL.PLLState = RCC_PLL_ON;
  67:Core/Src/main.c ****   RCC_OscInitStruct.PLL.PLLSource = RCC_PLLSOURCE_HSE;
  68:Core/Src/main.c ****   RCC_OscInitStruct.PLL.PLLMUL = RCC_PLL_MUL6;
  69:Core/Src/main.c ****   if (HAL_RCC_OscConfig(&RCC_OscInitStruct) != HAL_OK)
  70:Core/Src/main.c ****   {
  71:Core/Src/main.c ****     Error_Handler();
  72:Core/Src/main.c ****   }
  73:Core/Src/main.c **** 
  74:Core/Src/main.c ****   /** Initializes the CPU, AHB and APB buses clocks
  75:Core/Src/main.c ****   */
  76:Core/Src/main.c ****   RCC_ClkInitStruct.ClockType = RCC_CLOCKTYPE_HCLK|RCC_CLOCKTYPE_SYSCLK
  77:Core/Src/main.c ****                               |RCC_CLOCKTYPE_PCLK1|RCC_CLOCKTYPE_PCLK2;
  78:Core/Src/main.c ****   RCC_ClkInitStruct.SYSCLKSource = RCC_SYSCLKSOURCE_PLLCLK;
  79:Core/Src/main.c ****   RCC_ClkInitStruct.AHBCLKDivider = RCC_SYSCLK_DIV1;
  80:Core/Src/main.c ****   RCC_ClkInitStruct.APB1CLKDivider = RCC_HCLK_DIV2;
  81:Core/Src/main.c ****   RCC_ClkInitStruct.APB2CLKDivider = RCC_HCLK_DIV1;
  82:Core/Src/main.c **** 
  83:Core/Src/main.c ****   if (HAL_RCC_ClockConfig(&RCC_ClkInitStruct, FLASH_LATENCY_1) != HAL_OK)
  84:Core/Src/main.c ****   {
  85:Core/Src/main.c ****     Error_Handler();
  86:Core/Src/main.c ****   }
  87:Core/Src/main.c ****   PeriphClkInit.PeriphClockSelection = RCC_PERIPHCLK_USB;
  88:Core/Src/main.c ****   PeriphClkInit.UsbClockSelection = RCC_USBCLKSOURCE_PLL;
  89:Core/Src/main.c ****   if (HAL_RCCEx_PeriphCLKConfig(&PeriphClkInit) != HAL_OK)
  90:Core/Src/main.c ****   {
ARM GAS  /tmp/cctHSjWL.s 			page 3


  91:Core/Src/main.c ****     Error_Handler();
  92:Core/Src/main.c ****   }
  93:Core/Src/main.c **** }
  94:Core/Src/main.c **** 
  95:Core/Src/main.c **** 
  96:Core/Src/main.c **** static void MX_TIM1_Init(void)
  97:Core/Src/main.c **** {
  98:Core/Src/main.c **** 
  99:Core/Src/main.c **** 
 100:Core/Src/main.c ****   TIM_SlaveConfigTypeDef sSlaveConfig = {0};
 101:Core/Src/main.c ****   TIM_MasterConfigTypeDef sMasterConfig = {0};
 102:Core/Src/main.c **** 
 103:Core/Src/main.c ****   htim1.Instance = TIM1;
 104:Core/Src/main.c **** 
 105:Core/Src/main.c ****   htim1.Init.Prescaler = 7199;
 106:Core/Src/main.c ****   htim1.Init.CounterMode = TIM_COUNTERMODE_UP;
 107:Core/Src/main.c ****   htim1.Init.Period = 9999;
 108:Core/Src/main.c ****   htim1.Init.ClockDivision = TIM_CLOCKDIVISION_DIV1;
 109:Core/Src/main.c ****   htim1.Init.RepetitionCounter = 0;
 110:Core/Src/main.c ****   htim1.Init.AutoReloadPreload = TIM_AUTORELOAD_PRELOAD_DISABLE;
 111:Core/Src/main.c ****   if (HAL_TIM_Base_Init(&htim1) != HAL_OK)
 112:Core/Src/main.c ****   {
 113:Core/Src/main.c ****     Error_Handler();
 114:Core/Src/main.c ****   }
 115:Core/Src/main.c **** 
 116:Core/Src/main.c ****   sSlaveConfig.SlaveMode = TIM_SLAVEMODE_DISABLE;
 117:Core/Src/main.c ****   sSlaveConfig.InputTrigger = TIM_TS_ITR0;
 118:Core/Src/main.c ****   if (HAL_TIM_SlaveConfigSynchro(&htim1, &sSlaveConfig) != HAL_OK)
 119:Core/Src/main.c ****   {
 120:Core/Src/main.c ****     Error_Handler();
 121:Core/Src/main.c ****   }
 122:Core/Src/main.c ****   sMasterConfig.MasterOutputTrigger = TIM_TRGO_RESET;
 123:Core/Src/main.c ****   sMasterConfig.MasterSlaveMode = TIM_MASTERSLAVEMODE_DISABLE;
 124:Core/Src/main.c ****   if (HAL_TIMEx_MasterConfigSynchronization(&htim1, &sMasterConfig) != HAL_OK)
 125:Core/Src/main.c ****   {
 126:Core/Src/main.c ****     Error_Handler();
 127:Core/Src/main.c ****   }
 128:Core/Src/main.c **** 
 129:Core/Src/main.c **** }
 130:Core/Src/main.c **** 
 131:Core/Src/main.c **** static void MX_GPIO_Init(void)
 132:Core/Src/main.c **** {
  26              		.loc 1 132 1 view -0
  27              		.cfi_startproc
  28              		@ args = 0, pretend = 0, frame = 8
  29              		@ frame_needed = 0, uses_anonymous_args = 0
  30              		@ link register save eliminated.
  31 0000 82B0     		sub	sp, sp, #8
  32              	.LCFI0:
  33              		.cfi_def_cfa_offset 8
 133:Core/Src/main.c **** 
 134:Core/Src/main.c ****   __HAL_RCC_GPIOD_CLK_ENABLE();
  34              		.loc 1 134 3 view .LVU1
  35              	.LBB4:
  36              		.loc 1 134 3 view .LVU2
  37              		.loc 1 134 3 view .LVU3
  38 0002 0A4B     		ldr	r3, .L3
ARM GAS  /tmp/cctHSjWL.s 			page 4


  39 0004 9A69     		ldr	r2, [r3, #24]
  40 0006 42F02002 		orr	r2, r2, #32
  41 000a 9A61     		str	r2, [r3, #24]
  42              		.loc 1 134 3 view .LVU4
  43 000c 9A69     		ldr	r2, [r3, #24]
  44 000e 02F02002 		and	r2, r2, #32
  45 0012 0092     		str	r2, [sp]
  46              		.loc 1 134 3 view .LVU5
  47 0014 009A     		ldr	r2, [sp]
  48              	.LBE4:
  49              		.loc 1 134 3 view .LVU6
 135:Core/Src/main.c ****   __HAL_RCC_GPIOA_CLK_ENABLE();
  50              		.loc 1 135 3 view .LVU7
  51              	.LBB5:
  52              		.loc 1 135 3 view .LVU8
  53              		.loc 1 135 3 view .LVU9
  54 0016 9A69     		ldr	r2, [r3, #24]
  55 0018 42F00402 		orr	r2, r2, #4
  56 001c 9A61     		str	r2, [r3, #24]
  57              		.loc 1 135 3 view .LVU10
  58 001e 9B69     		ldr	r3, [r3, #24]
  59 0020 03F00403 		and	r3, r3, #4
  60 0024 0193     		str	r3, [sp, #4]
  61              		.loc 1 135 3 view .LVU11
  62 0026 019B     		ldr	r3, [sp, #4]
  63              	.LBE5:
  64              		.loc 1 135 3 view .LVU12
 136:Core/Src/main.c **** 
 137:Core/Src/main.c **** }
  65              		.loc 1 137 1 is_stmt 0 view .LVU13
  66 0028 02B0     		add	sp, sp, #8
  67              	.LCFI1:
  68              		.cfi_def_cfa_offset 0
  69              		@ sp needed
  70 002a 7047     		bx	lr
  71              	.L4:
  72              		.align	2
  73              	.L3:
  74 002c 00100240 		.word	1073876992
  75              		.cfi_endproc
  76              	.LFE71:
  78              		.section	.rodata.HAL_TIM_PeriodElapsedCallback.str1.4,"aMS",%progbits,1
  79              		.align	2
  80              	.LC0:
  81 0000 5469636B 		.ascii	"Tick: %lu\015\012\000"
  81      3A20256C 
  81      750D0A00 
  82              		.section	.text.HAL_TIM_PeriodElapsedCallback,"ax",%progbits
  83              		.align	1
  84              		.global	HAL_TIM_PeriodElapsedCallback
  85              		.syntax unified
  86              		.thumb
  87              		.thumb_func
  89              	HAL_TIM_PeriodElapsedCallback:
  90              	.LVL0:
  91              	.LFB72:
 138:Core/Src/main.c **** 
ARM GAS  /tmp/cctHSjWL.s 			page 5


 139:Core/Src/main.c **** 
 140:Core/Src/main.c **** void HAL_TIM_PeriodElapsedCallback(TIM_HandleTypeDef *htim)
 141:Core/Src/main.c **** {
  92              		.loc 1 141 1 is_stmt 1 view -0
  93              		.cfi_startproc
  94              		@ args = 0, pretend = 0, frame = 32
  95              		@ frame_needed = 0, uses_anonymous_args = 0
 142:Core/Src/main.c ****   if (htim->Instance == TIM1)
  96              		.loc 1 142 3 view .LVU15
  97              		.loc 1 142 11 is_stmt 0 view .LVU16
  98 0000 0268     		ldr	r2, [r0]
  99              		.loc 1 142 6 view .LVU17
 100 0002 0B4B     		ldr	r3, .L12
 101 0004 9A42     		cmp	r2, r3
 102 0006 00D0     		beq	.L11
 103 0008 7047     		bx	lr
 104              	.L11:
 141:Core/Src/main.c ****   if (htim->Instance == TIM1)
 105              		.loc 1 141 1 view .LVU18
 106 000a 10B5     		push	{r4, lr}
 107              	.LCFI2:
 108              		.cfi_def_cfa_offset 8
 109              		.cfi_offset 4, -8
 110              		.cfi_offset 14, -4
 111 000c 88B0     		sub	sp, sp, #32
 112              	.LCFI3:
 113              		.cfi_def_cfa_offset 40
 114              	.LBB6:
 143:Core/Src/main.c ****   {
 144:Core/Src/main.c ****     char tx_buf[32];
 115              		.loc 1 144 5 is_stmt 1 view .LVU19
 145:Core/Src/main.c ****     int len;
 116              		.loc 1 145 5 view .LVU20
 146:Core/Src/main.c **** 
 147:Core/Src/main.c ****     seconds_counter++;
 117              		.loc 1 147 5 view .LVU21
 118              		.loc 1 147 20 is_stmt 0 view .LVU22
 119 000e 094B     		ldr	r3, .L12+4
 120 0010 1A68     		ldr	r2, [r3]
 121 0012 0132     		adds	r2, r2, #1
 122 0014 1A60     		str	r2, [r3]
 148:Core/Src/main.c ****     len = snprintf(tx_buf, sizeof(tx_buf), "Tick: %lu\r\n",
 123              		.loc 1 148 5 is_stmt 1 view .LVU23
 124              		.loc 1 148 11 is_stmt 0 view .LVU24
 125 0016 1B68     		ldr	r3, [r3]
 126 0018 074A     		ldr	r2, .L12+8
 127 001a 2021     		movs	r1, #32
 128 001c 6846     		mov	r0, sp
 129              	.LVL1:
 130              		.loc 1 148 11 view .LVU25
 131 001e FFF7FEFF 		bl	snprintf
 132              	.LVL2:
 149:Core/Src/main.c ****                     (unsigned long)seconds_counter);
 150:Core/Src/main.c **** 
 151:Core/Src/main.c ****     /* CDC_Transmit_FS returns USBD_OK (0) on success. If the buffer
 152:Core/Src/main.c ****        is busy (previous transfer still in progress) it returns
 153:Core/Src/main.c ****        USBD_BUSY; you can retry or simply drop this tick's message. */
ARM GAS  /tmp/cctHSjWL.s 			page 6


 154:Core/Src/main.c ****     CDC_Transmit_FS((uint8_t *)tx_buf, len);
 133              		.loc 1 154 5 is_stmt 1 view .LVU26
 134 0022 81B2     		uxth	r1, r0
 135 0024 6846     		mov	r0, sp
 136              	.LVL3:
 137              		.loc 1 154 5 is_stmt 0 view .LVU27
 138 0026 FFF7FEFF 		bl	CDC_Transmit_FS
 139              	.LVL4:
 140              	.LBE6:
 155:Core/Src/main.c ****   }
 156:Core/Src/main.c **** }
 141              		.loc 1 156 1 view .LVU28
 142 002a 08B0     		add	sp, sp, #32
 143              	.LCFI4:
 144              		.cfi_def_cfa_offset 8
 145              		@ sp needed
 146 002c 10BD     		pop	{r4, pc}
 147              	.L13:
 148 002e 00BF     		.align	2
 149              	.L12:
 150 0030 002C0140 		.word	1073818624
 151 0034 00000000 		.word	seconds_counter
 152 0038 00000000 		.word	.LC0
 153              		.cfi_endproc
 154              	.LFE72:
 156              		.section	.text.Error_Handler,"ax",%progbits
 157              		.align	1
 158              		.global	Error_Handler
 159              		.syntax unified
 160              		.thumb
 161              		.thumb_func
 163              	Error_Handler:
 164              	.LFB73:
 157:Core/Src/main.c **** 
 158:Core/Src/main.c **** void Error_Handler(void)
 159:Core/Src/main.c **** {
 165              		.loc 1 159 1 is_stmt 1 view -0
 166              		.cfi_startproc
 167              		@ Volatile: function does not return.
 168              		@ args = 0, pretend = 0, frame = 0
 169              		@ frame_needed = 0, uses_anonymous_args = 0
 170              		@ link register save eliminated.
 160:Core/Src/main.c ****   /* USER CODE BEGIN Error_Handler_Debug */
 161:Core/Src/main.c ****   __disable_irq();
 171              		.loc 1 161 3 view .LVU30
 172              	.LBB7:
 173              	.LBI7:
 174              		.file 2 "Drivers/CMSIS/Include/cmsis_gcc.h"
   1:Drivers/CMSIS/Include/cmsis_gcc.h **** /**************************************************************************//**
   2:Drivers/CMSIS/Include/cmsis_gcc.h ****  * @file     cmsis_gcc.h
   3:Drivers/CMSIS/Include/cmsis_gcc.h ****  * @brief    CMSIS compiler GCC header file
   4:Drivers/CMSIS/Include/cmsis_gcc.h ****  * @version  V5.0.4
   5:Drivers/CMSIS/Include/cmsis_gcc.h ****  * @date     09. April 2018
   6:Drivers/CMSIS/Include/cmsis_gcc.h ****  ******************************************************************************/
   7:Drivers/CMSIS/Include/cmsis_gcc.h **** /*
   8:Drivers/CMSIS/Include/cmsis_gcc.h ****  * Copyright (c) 2009-2018 Arm Limited. All rights reserved.
   9:Drivers/CMSIS/Include/cmsis_gcc.h ****  *
ARM GAS  /tmp/cctHSjWL.s 			page 7


  10:Drivers/CMSIS/Include/cmsis_gcc.h ****  * SPDX-License-Identifier: Apache-2.0
  11:Drivers/CMSIS/Include/cmsis_gcc.h ****  *
  12:Drivers/CMSIS/Include/cmsis_gcc.h ****  * Licensed under the Apache License, Version 2.0 (the License); you may
  13:Drivers/CMSIS/Include/cmsis_gcc.h ****  * not use this file except in compliance with the License.
  14:Drivers/CMSIS/Include/cmsis_gcc.h ****  * You may obtain a copy of the License at
  15:Drivers/CMSIS/Include/cmsis_gcc.h ****  *
  16:Drivers/CMSIS/Include/cmsis_gcc.h ****  * www.apache.org/licenses/LICENSE-2.0
  17:Drivers/CMSIS/Include/cmsis_gcc.h ****  *
  18:Drivers/CMSIS/Include/cmsis_gcc.h ****  * Unless required by applicable law or agreed to in writing, software
  19:Drivers/CMSIS/Include/cmsis_gcc.h ****  * distributed under the License is distributed on an AS IS BASIS, WITHOUT
  20:Drivers/CMSIS/Include/cmsis_gcc.h ****  * WARRANTIES OR CONDITIONS OF ANY KIND, either express or implied.
  21:Drivers/CMSIS/Include/cmsis_gcc.h ****  * See the License for the specific language governing permissions and
  22:Drivers/CMSIS/Include/cmsis_gcc.h ****  * limitations under the License.
  23:Drivers/CMSIS/Include/cmsis_gcc.h ****  */
  24:Drivers/CMSIS/Include/cmsis_gcc.h **** 
  25:Drivers/CMSIS/Include/cmsis_gcc.h **** #ifndef __CMSIS_GCC_H
  26:Drivers/CMSIS/Include/cmsis_gcc.h **** #define __CMSIS_GCC_H
  27:Drivers/CMSIS/Include/cmsis_gcc.h **** 
  28:Drivers/CMSIS/Include/cmsis_gcc.h **** /* ignore some GCC warnings */
  29:Drivers/CMSIS/Include/cmsis_gcc.h **** #pragma GCC diagnostic push
  30:Drivers/CMSIS/Include/cmsis_gcc.h **** #pragma GCC diagnostic ignored "-Wsign-conversion"
  31:Drivers/CMSIS/Include/cmsis_gcc.h **** #pragma GCC diagnostic ignored "-Wconversion"
  32:Drivers/CMSIS/Include/cmsis_gcc.h **** #pragma GCC diagnostic ignored "-Wunused-parameter"
  33:Drivers/CMSIS/Include/cmsis_gcc.h **** 
  34:Drivers/CMSIS/Include/cmsis_gcc.h **** /* Fallback for __has_builtin */
  35:Drivers/CMSIS/Include/cmsis_gcc.h **** #ifndef __has_builtin
  36:Drivers/CMSIS/Include/cmsis_gcc.h ****   #define __has_builtin(x) (0)
  37:Drivers/CMSIS/Include/cmsis_gcc.h **** #endif
  38:Drivers/CMSIS/Include/cmsis_gcc.h **** 
  39:Drivers/CMSIS/Include/cmsis_gcc.h **** /* CMSIS compiler specific defines */
  40:Drivers/CMSIS/Include/cmsis_gcc.h **** #ifndef   __ASM
  41:Drivers/CMSIS/Include/cmsis_gcc.h ****   #define __ASM                                  __asm
  42:Drivers/CMSIS/Include/cmsis_gcc.h **** #endif
  43:Drivers/CMSIS/Include/cmsis_gcc.h **** #ifndef   __INLINE
  44:Drivers/CMSIS/Include/cmsis_gcc.h ****   #define __INLINE                               inline
  45:Drivers/CMSIS/Include/cmsis_gcc.h **** #endif
  46:Drivers/CMSIS/Include/cmsis_gcc.h **** #ifndef   __STATIC_INLINE
  47:Drivers/CMSIS/Include/cmsis_gcc.h ****   #define __STATIC_INLINE                        static inline
  48:Drivers/CMSIS/Include/cmsis_gcc.h **** #endif
  49:Drivers/CMSIS/Include/cmsis_gcc.h **** #ifndef   __STATIC_FORCEINLINE                 
  50:Drivers/CMSIS/Include/cmsis_gcc.h ****   #define __STATIC_FORCEINLINE                   __attribute__((always_inline)) static inline
  51:Drivers/CMSIS/Include/cmsis_gcc.h **** #endif                                           
  52:Drivers/CMSIS/Include/cmsis_gcc.h **** #ifndef   __NO_RETURN
  53:Drivers/CMSIS/Include/cmsis_gcc.h ****   #define __NO_RETURN                            __attribute__((__noreturn__))
  54:Drivers/CMSIS/Include/cmsis_gcc.h **** #endif
  55:Drivers/CMSIS/Include/cmsis_gcc.h **** #ifndef   __USED
  56:Drivers/CMSIS/Include/cmsis_gcc.h ****   #define __USED                                 __attribute__((used))
  57:Drivers/CMSIS/Include/cmsis_gcc.h **** #endif
  58:Drivers/CMSIS/Include/cmsis_gcc.h **** #ifndef   __WEAK
  59:Drivers/CMSIS/Include/cmsis_gcc.h ****   #define __WEAK                                 __attribute__((weak))
  60:Drivers/CMSIS/Include/cmsis_gcc.h **** #endif
  61:Drivers/CMSIS/Include/cmsis_gcc.h **** #ifndef   __PACKED
  62:Drivers/CMSIS/Include/cmsis_gcc.h ****   #define __PACKED                               __attribute__((packed, aligned(1)))
  63:Drivers/CMSIS/Include/cmsis_gcc.h **** #endif
  64:Drivers/CMSIS/Include/cmsis_gcc.h **** #ifndef   __PACKED_STRUCT
  65:Drivers/CMSIS/Include/cmsis_gcc.h ****   #define __PACKED_STRUCT                        struct __attribute__((packed, aligned(1)))
  66:Drivers/CMSIS/Include/cmsis_gcc.h **** #endif
ARM GAS  /tmp/cctHSjWL.s 			page 8


  67:Drivers/CMSIS/Include/cmsis_gcc.h **** #ifndef   __PACKED_UNION
  68:Drivers/CMSIS/Include/cmsis_gcc.h ****   #define __PACKED_UNION                         union __attribute__((packed, aligned(1)))
  69:Drivers/CMSIS/Include/cmsis_gcc.h **** #endif
  70:Drivers/CMSIS/Include/cmsis_gcc.h **** #ifndef   __UNALIGNED_UINT32        /* deprecated */
  71:Drivers/CMSIS/Include/cmsis_gcc.h ****   #pragma GCC diagnostic push
  72:Drivers/CMSIS/Include/cmsis_gcc.h ****   #pragma GCC diagnostic ignored "-Wpacked"
  73:Drivers/CMSIS/Include/cmsis_gcc.h ****   #pragma GCC diagnostic ignored "-Wattributes"
  74:Drivers/CMSIS/Include/cmsis_gcc.h ****   struct __attribute__((packed)) T_UINT32 { uint32_t v; };
  75:Drivers/CMSIS/Include/cmsis_gcc.h ****   #pragma GCC diagnostic pop
  76:Drivers/CMSIS/Include/cmsis_gcc.h ****   #define __UNALIGNED_UINT32(x)                  (((struct T_UINT32 *)(x))->v)
  77:Drivers/CMSIS/Include/cmsis_gcc.h **** #endif
  78:Drivers/CMSIS/Include/cmsis_gcc.h **** #ifndef   __UNALIGNED_UINT16_WRITE
  79:Drivers/CMSIS/Include/cmsis_gcc.h ****   #pragma GCC diagnostic push
  80:Drivers/CMSIS/Include/cmsis_gcc.h ****   #pragma GCC diagnostic ignored "-Wpacked"
  81:Drivers/CMSIS/Include/cmsis_gcc.h ****   #pragma GCC diagnostic ignored "-Wattributes"
  82:Drivers/CMSIS/Include/cmsis_gcc.h ****   __PACKED_STRUCT T_UINT16_WRITE { uint16_t v; };
  83:Drivers/CMSIS/Include/cmsis_gcc.h ****   #pragma GCC diagnostic pop
  84:Drivers/CMSIS/Include/cmsis_gcc.h ****   #define __UNALIGNED_UINT16_WRITE(addr, val)    (void)((((struct T_UINT16_WRITE *)(void *)(addr))-
  85:Drivers/CMSIS/Include/cmsis_gcc.h **** #endif
  86:Drivers/CMSIS/Include/cmsis_gcc.h **** #ifndef   __UNALIGNED_UINT16_READ
  87:Drivers/CMSIS/Include/cmsis_gcc.h ****   #pragma GCC diagnostic push
  88:Drivers/CMSIS/Include/cmsis_gcc.h ****   #pragma GCC diagnostic ignored "-Wpacked"
  89:Drivers/CMSIS/Include/cmsis_gcc.h ****   #pragma GCC diagnostic ignored "-Wattributes"
  90:Drivers/CMSIS/Include/cmsis_gcc.h ****   __PACKED_STRUCT T_UINT16_READ { uint16_t v; };
  91:Drivers/CMSIS/Include/cmsis_gcc.h ****   #pragma GCC diagnostic pop
  92:Drivers/CMSIS/Include/cmsis_gcc.h ****   #define __UNALIGNED_UINT16_READ(addr)          (((const struct T_UINT16_READ *)(const void *)(add
  93:Drivers/CMSIS/Include/cmsis_gcc.h **** #endif
  94:Drivers/CMSIS/Include/cmsis_gcc.h **** #ifndef   __UNALIGNED_UINT32_WRITE
  95:Drivers/CMSIS/Include/cmsis_gcc.h ****   #pragma GCC diagnostic push
  96:Drivers/CMSIS/Include/cmsis_gcc.h ****   #pragma GCC diagnostic ignored "-Wpacked"
  97:Drivers/CMSIS/Include/cmsis_gcc.h ****   #pragma GCC diagnostic ignored "-Wattributes"
  98:Drivers/CMSIS/Include/cmsis_gcc.h ****   __PACKED_STRUCT T_UINT32_WRITE { uint32_t v; };
  99:Drivers/CMSIS/Include/cmsis_gcc.h ****   #pragma GCC diagnostic pop
 100:Drivers/CMSIS/Include/cmsis_gcc.h ****   #define __UNALIGNED_UINT32_WRITE(addr, val)    (void)((((struct T_UINT32_WRITE *)(void *)(addr))-
 101:Drivers/CMSIS/Include/cmsis_gcc.h **** #endif
 102:Drivers/CMSIS/Include/cmsis_gcc.h **** #ifndef   __UNALIGNED_UINT32_READ
 103:Drivers/CMSIS/Include/cmsis_gcc.h ****   #pragma GCC diagnostic push
 104:Drivers/CMSIS/Include/cmsis_gcc.h ****   #pragma GCC diagnostic ignored "-Wpacked"
 105:Drivers/CMSIS/Include/cmsis_gcc.h ****   #pragma GCC diagnostic ignored "-Wattributes"
 106:Drivers/CMSIS/Include/cmsis_gcc.h ****   __PACKED_STRUCT T_UINT32_READ { uint32_t v; };
 107:Drivers/CMSIS/Include/cmsis_gcc.h ****   #pragma GCC diagnostic pop
 108:Drivers/CMSIS/Include/cmsis_gcc.h ****   #define __UNALIGNED_UINT32_READ(addr)          (((const struct T_UINT32_READ *)(const void *)(add
 109:Drivers/CMSIS/Include/cmsis_gcc.h **** #endif
 110:Drivers/CMSIS/Include/cmsis_gcc.h **** #ifndef   __ALIGNED
 111:Drivers/CMSIS/Include/cmsis_gcc.h ****   #define __ALIGNED(x)                           __attribute__((aligned(x)))
 112:Drivers/CMSIS/Include/cmsis_gcc.h **** #endif
 113:Drivers/CMSIS/Include/cmsis_gcc.h **** #ifndef   __RESTRICT
 114:Drivers/CMSIS/Include/cmsis_gcc.h ****   #define __RESTRICT                             __restrict
 115:Drivers/CMSIS/Include/cmsis_gcc.h **** #endif
 116:Drivers/CMSIS/Include/cmsis_gcc.h **** 
 117:Drivers/CMSIS/Include/cmsis_gcc.h **** 
 118:Drivers/CMSIS/Include/cmsis_gcc.h **** /* ###########################  Core Function Access  ########################### */
 119:Drivers/CMSIS/Include/cmsis_gcc.h **** /** \ingroup  CMSIS_Core_FunctionInterface
 120:Drivers/CMSIS/Include/cmsis_gcc.h ****     \defgroup CMSIS_Core_RegAccFunctions CMSIS Core Register Access Functions
 121:Drivers/CMSIS/Include/cmsis_gcc.h ****   @{
 122:Drivers/CMSIS/Include/cmsis_gcc.h ****  */
 123:Drivers/CMSIS/Include/cmsis_gcc.h **** 
ARM GAS  /tmp/cctHSjWL.s 			page 9


 124:Drivers/CMSIS/Include/cmsis_gcc.h **** /**
 125:Drivers/CMSIS/Include/cmsis_gcc.h ****   \brief   Enable IRQ Interrupts
 126:Drivers/CMSIS/Include/cmsis_gcc.h ****   \details Enables IRQ interrupts by clearing the I-bit in the CPSR.
 127:Drivers/CMSIS/Include/cmsis_gcc.h ****            Can only be executed in Privileged modes.
 128:Drivers/CMSIS/Include/cmsis_gcc.h ****  */
 129:Drivers/CMSIS/Include/cmsis_gcc.h **** __STATIC_FORCEINLINE void __enable_irq(void)
 130:Drivers/CMSIS/Include/cmsis_gcc.h **** {
 131:Drivers/CMSIS/Include/cmsis_gcc.h ****   __ASM volatile ("cpsie i" : : : "memory");
 132:Drivers/CMSIS/Include/cmsis_gcc.h **** }
 133:Drivers/CMSIS/Include/cmsis_gcc.h **** 
 134:Drivers/CMSIS/Include/cmsis_gcc.h **** 
 135:Drivers/CMSIS/Include/cmsis_gcc.h **** /**
 136:Drivers/CMSIS/Include/cmsis_gcc.h ****   \brief   Disable IRQ Interrupts
 137:Drivers/CMSIS/Include/cmsis_gcc.h ****   \details Disables IRQ interrupts by setting the I-bit in the CPSR.
 138:Drivers/CMSIS/Include/cmsis_gcc.h ****            Can only be executed in Privileged modes.
 139:Drivers/CMSIS/Include/cmsis_gcc.h ****  */
 140:Drivers/CMSIS/Include/cmsis_gcc.h **** __STATIC_FORCEINLINE void __disable_irq(void)
 175              		.loc 2 140 27 view .LVU31
 176              	.LBB8:
 141:Drivers/CMSIS/Include/cmsis_gcc.h **** {
 142:Drivers/CMSIS/Include/cmsis_gcc.h ****   __ASM volatile ("cpsid i" : : : "memory");
 177              		.loc 2 142 3 view .LVU32
 178              		.syntax unified
 179              	@ 142 "Drivers/CMSIS/Include/cmsis_gcc.h" 1
 180 0000 72B6     		cpsid i
 181              	@ 0 "" 2
 182              		.thumb
 183              		.syntax unified
 184              	.L15:
 185              	.LBE8:
 186              	.LBE7:
 162:Core/Src/main.c ****   while (1)
 187              		.loc 1 162 3 view .LVU33
 163:Core/Src/main.c ****   {
 164:Core/Src/main.c ****   }
 188              		.loc 1 164 3 view .LVU34
 162:Core/Src/main.c ****   while (1)
 189              		.loc 1 162 9 view .LVU35
 190 0002 FEE7     		b	.L15
 191              		.cfi_endproc
 192              	.LFE73:
 194              		.section	.text.MX_TIM1_Init,"ax",%progbits
 195              		.align	1
 196              		.syntax unified
 197              		.thumb
 198              		.thumb_func
 200              	MX_TIM1_Init:
 201              	.LFB70:
  97:Core/Src/main.c **** 
 202              		.loc 1 97 1 view -0
 203              		.cfi_startproc
 204              		@ args = 0, pretend = 0, frame = 32
 205              		@ frame_needed = 0, uses_anonymous_args = 0
 206 0000 00B5     		push	{lr}
 207              	.LCFI5:
 208              		.cfi_def_cfa_offset 4
 209              		.cfi_offset 14, -4
ARM GAS  /tmp/cctHSjWL.s 			page 10


 210 0002 89B0     		sub	sp, sp, #36
 211              	.LCFI6:
 212              		.cfi_def_cfa_offset 40
 100:Core/Src/main.c ****   TIM_MasterConfigTypeDef sMasterConfig = {0};
 213              		.loc 1 100 3 view .LVU37
 100:Core/Src/main.c ****   TIM_MasterConfigTypeDef sMasterConfig = {0};
 214              		.loc 1 100 26 is_stmt 0 view .LVU38
 215 0004 0023     		movs	r3, #0
 216 0006 0393     		str	r3, [sp, #12]
 217 0008 0493     		str	r3, [sp, #16]
 218 000a 0593     		str	r3, [sp, #20]
 219 000c 0693     		str	r3, [sp, #24]
 220 000e 0793     		str	r3, [sp, #28]
 101:Core/Src/main.c **** 
 221              		.loc 1 101 3 is_stmt 1 view .LVU39
 101:Core/Src/main.c **** 
 222              		.loc 1 101 27 is_stmt 0 view .LVU40
 223 0010 0193     		str	r3, [sp, #4]
 224 0012 0293     		str	r3, [sp, #8]
 103:Core/Src/main.c **** 
 225              		.loc 1 103 3 is_stmt 1 view .LVU41
 103:Core/Src/main.c **** 
 226              		.loc 1 103 18 is_stmt 0 view .LVU42
 227 0014 1348     		ldr	r0, .L24
 228 0016 144A     		ldr	r2, .L24+4
 229 0018 0260     		str	r2, [r0]
 105:Core/Src/main.c ****   htim1.Init.CounterMode = TIM_COUNTERMODE_UP;
 230              		.loc 1 105 3 is_stmt 1 view .LVU43
 105:Core/Src/main.c ****   htim1.Init.CounterMode = TIM_COUNTERMODE_UP;
 231              		.loc 1 105 24 is_stmt 0 view .LVU44
 232 001a 41F61F42 		movw	r2, #7199
 233 001e 4260     		str	r2, [r0, #4]
 106:Core/Src/main.c ****   htim1.Init.Period = 9999;
 234              		.loc 1 106 3 is_stmt 1 view .LVU45
 106:Core/Src/main.c ****   htim1.Init.Period = 9999;
 235              		.loc 1 106 26 is_stmt 0 view .LVU46
 236 0020 8360     		str	r3, [r0, #8]
 107:Core/Src/main.c ****   htim1.Init.ClockDivision = TIM_CLOCKDIVISION_DIV1;
 237              		.loc 1 107 3 is_stmt 1 view .LVU47
 107:Core/Src/main.c ****   htim1.Init.ClockDivision = TIM_CLOCKDIVISION_DIV1;
 238              		.loc 1 107 21 is_stmt 0 view .LVU48
 239 0022 42F20F72 		movw	r2, #9999
 240 0026 C260     		str	r2, [r0, #12]
 108:Core/Src/main.c ****   htim1.Init.RepetitionCounter = 0;
 241              		.loc 1 108 3 is_stmt 1 view .LVU49
 108:Core/Src/main.c ****   htim1.Init.RepetitionCounter = 0;
 242              		.loc 1 108 28 is_stmt 0 view .LVU50
 243 0028 0361     		str	r3, [r0, #16]
 109:Core/Src/main.c ****   htim1.Init.AutoReloadPreload = TIM_AUTORELOAD_PRELOAD_DISABLE;
 244              		.loc 1 109 3 is_stmt 1 view .LVU51
 109:Core/Src/main.c ****   htim1.Init.AutoReloadPreload = TIM_AUTORELOAD_PRELOAD_DISABLE;
 245              		.loc 1 109 32 is_stmt 0 view .LVU52
 246 002a 4361     		str	r3, [r0, #20]
 110:Core/Src/main.c ****   if (HAL_TIM_Base_Init(&htim1) != HAL_OK)
 247              		.loc 1 110 3 is_stmt 1 view .LVU53
 110:Core/Src/main.c ****   if (HAL_TIM_Base_Init(&htim1) != HAL_OK)
 248              		.loc 1 110 32 is_stmt 0 view .LVU54
ARM GAS  /tmp/cctHSjWL.s 			page 11


 249 002c 8361     		str	r3, [r0, #24]
 111:Core/Src/main.c ****   {
 250              		.loc 1 111 3 is_stmt 1 view .LVU55
 111:Core/Src/main.c ****   {
 251              		.loc 1 111 7 is_stmt 0 view .LVU56
 252 002e FFF7FEFF 		bl	HAL_TIM_Base_Init
 253              	.LVL5:
 111:Core/Src/main.c ****   {
 254              		.loc 1 111 6 discriminator 1 view .LVU57
 255 0032 88B9     		cbnz	r0, .L21
 116:Core/Src/main.c ****   sSlaveConfig.InputTrigger = TIM_TS_ITR0;
 256              		.loc 1 116 3 is_stmt 1 view .LVU58
 116:Core/Src/main.c ****   sSlaveConfig.InputTrigger = TIM_TS_ITR0;
 257              		.loc 1 116 26 is_stmt 0 view .LVU59
 258 0034 0023     		movs	r3, #0
 259 0036 0393     		str	r3, [sp, #12]
 117:Core/Src/main.c ****   if (HAL_TIM_SlaveConfigSynchro(&htim1, &sSlaveConfig) != HAL_OK)
 260              		.loc 1 117 3 is_stmt 1 view .LVU60
 117:Core/Src/main.c ****   if (HAL_TIM_SlaveConfigSynchro(&htim1, &sSlaveConfig) != HAL_OK)
 261              		.loc 1 117 29 is_stmt 0 view .LVU61
 262 0038 0493     		str	r3, [sp, #16]
 118:Core/Src/main.c ****   {
 263              		.loc 1 118 3 is_stmt 1 view .LVU62
 118:Core/Src/main.c ****   {
 264              		.loc 1 118 7 is_stmt 0 view .LVU63
 265 003a 03A9     		add	r1, sp, #12
 266 003c 0948     		ldr	r0, .L24
 267 003e FFF7FEFF 		bl	HAL_TIM_SlaveConfigSynchro
 268              	.LVL6:
 118:Core/Src/main.c ****   {
 269              		.loc 1 118 6 discriminator 1 view .LVU64
 270 0042 58B9     		cbnz	r0, .L22
 122:Core/Src/main.c ****   sMasterConfig.MasterSlaveMode = TIM_MASTERSLAVEMODE_DISABLE;
 271              		.loc 1 122 3 is_stmt 1 view .LVU65
 122:Core/Src/main.c ****   sMasterConfig.MasterSlaveMode = TIM_MASTERSLAVEMODE_DISABLE;
 272              		.loc 1 122 37 is_stmt 0 view .LVU66
 273 0044 0023     		movs	r3, #0
 274 0046 0193     		str	r3, [sp, #4]
 123:Core/Src/main.c ****   if (HAL_TIMEx_MasterConfigSynchronization(&htim1, &sMasterConfig) != HAL_OK)
 275              		.loc 1 123 3 is_stmt 1 view .LVU67
 123:Core/Src/main.c ****   if (HAL_TIMEx_MasterConfigSynchronization(&htim1, &sMasterConfig) != HAL_OK)
 276              		.loc 1 123 33 is_stmt 0 view .LVU68
 277 0048 0293     		str	r3, [sp, #8]
 124:Core/Src/main.c ****   {
 278              		.loc 1 124 3 is_stmt 1 view .LVU69
 124:Core/Src/main.c ****   {
 279              		.loc 1 124 7 is_stmt 0 view .LVU70
 280 004a 01A9     		add	r1, sp, #4
 281 004c 0548     		ldr	r0, .L24
 282 004e FFF7FEFF 		bl	HAL_TIMEx_MasterConfigSynchronization
 283              	.LVL7:
 124:Core/Src/main.c ****   {
 284              		.loc 1 124 6 discriminator 1 view .LVU71
 285 0052 28B9     		cbnz	r0, .L23
 129:Core/Src/main.c **** 
 286              		.loc 1 129 1 view .LVU72
 287 0054 09B0     		add	sp, sp, #36
ARM GAS  /tmp/cctHSjWL.s 			page 12


 288              	.LCFI7:
 289              		.cfi_remember_state
 290              		.cfi_def_cfa_offset 4
 291              		@ sp needed
 292 0056 00BD     		pop	{pc}
 293              	.L21:
 294              	.LCFI8:
 295              		.cfi_restore_state
 113:Core/Src/main.c ****   }
 296              		.loc 1 113 5 is_stmt 1 view .LVU73
 297 0058 FFF7FEFF 		bl	Error_Handler
 298              	.LVL8:
 299              	.L22:
 120:Core/Src/main.c ****   }
 300              		.loc 1 120 5 view .LVU74
 301 005c FFF7FEFF 		bl	Error_Handler
 302              	.LVL9:
 303              	.L23:
 126:Core/Src/main.c ****   }
 304              		.loc 1 126 5 view .LVU75
 305 0060 FFF7FEFF 		bl	Error_Handler
 306              	.LVL10:
 307              	.L25:
 308              		.align	2
 309              	.L24:
 310 0064 00000000 		.word	htim1
 311 0068 002C0140 		.word	1073818624
 312              		.cfi_endproc
 313              	.LFE70:
 315              		.section	.text.SystemClock_Config,"ax",%progbits
 316              		.align	1
 317              		.global	SystemClock_Config
 318              		.syntax unified
 319              		.thumb
 320              		.thumb_func
 322              	SystemClock_Config:
 323              	.LFB69:
  54:Core/Src/main.c ****   RCC_OscInitTypeDef RCC_OscInitStruct = {0};
 324              		.loc 1 54 1 view -0
 325              		.cfi_startproc
 326              		@ args = 0, pretend = 0, frame = 80
 327              		@ frame_needed = 0, uses_anonymous_args = 0
 328 0000 10B5     		push	{r4, lr}
 329              	.LCFI9:
 330              		.cfi_def_cfa_offset 8
 331              		.cfi_offset 4, -8
 332              		.cfi_offset 14, -4
 333 0002 94B0     		sub	sp, sp, #80
 334              	.LCFI10:
 335              		.cfi_def_cfa_offset 88
  55:Core/Src/main.c ****   RCC_ClkInitTypeDef RCC_ClkInitStruct = {0};
 336              		.loc 1 55 3 view .LVU77
  55:Core/Src/main.c ****   RCC_ClkInitTypeDef RCC_ClkInitStruct = {0};
 337              		.loc 1 55 22 is_stmt 0 view .LVU78
 338 0004 0AAC     		add	r4, sp, #40
 339 0006 2822     		movs	r2, #40
 340 0008 0021     		movs	r1, #0
ARM GAS  /tmp/cctHSjWL.s 			page 13


 341 000a 2046     		mov	r0, r4
 342 000c FFF7FEFF 		bl	memset
 343              	.LVL11:
  56:Core/Src/main.c ****   RCC_PeriphCLKInitTypeDef PeriphClkInit = {0};
 344              		.loc 1 56 3 is_stmt 1 view .LVU79
  56:Core/Src/main.c ****   RCC_PeriphCLKInitTypeDef PeriphClkInit = {0};
 345              		.loc 1 56 22 is_stmt 0 view .LVU80
 346 0010 0023     		movs	r3, #0
 347 0012 0593     		str	r3, [sp, #20]
 348 0014 0693     		str	r3, [sp, #24]
 349 0016 0793     		str	r3, [sp, #28]
 350 0018 0893     		str	r3, [sp, #32]
 351 001a 0993     		str	r3, [sp, #36]
  57:Core/Src/main.c **** 
 352              		.loc 1 57 3 is_stmt 1 view .LVU81
  57:Core/Src/main.c **** 
 353              		.loc 1 57 28 is_stmt 0 view .LVU82
 354 001c 0193     		str	r3, [sp, #4]
 355 001e 0293     		str	r3, [sp, #8]
 356 0020 0393     		str	r3, [sp, #12]
 357 0022 0493     		str	r3, [sp, #16]
  62:Core/Src/main.c ****   RCC_OscInitStruct.HSEState = RCC_HSE_ON;
 358              		.loc 1 62 3 is_stmt 1 view .LVU83
  62:Core/Src/main.c ****   RCC_OscInitStruct.HSEState = RCC_HSE_ON;
 359              		.loc 1 62 36 is_stmt 0 view .LVU84
 360 0024 0122     		movs	r2, #1
 361 0026 0A92     		str	r2, [sp, #40]
  63:Core/Src/main.c ****   RCC_OscInitStruct.HSEPredivValue = RCC_HSE_PREDIV_DIV1;
 362              		.loc 1 63 3 is_stmt 1 view .LVU85
  63:Core/Src/main.c ****   RCC_OscInitStruct.HSEPredivValue = RCC_HSE_PREDIV_DIV1;
 363              		.loc 1 63 30 is_stmt 0 view .LVU86
 364 0028 4FF48033 		mov	r3, #65536
 365 002c 0B93     		str	r3, [sp, #44]
  64:Core/Src/main.c ****   RCC_OscInitStruct.HSIState = RCC_HSI_ON;
 366              		.loc 1 64 3 is_stmt 1 view .LVU87
  65:Core/Src/main.c ****   RCC_OscInitStruct.PLL.PLLState = RCC_PLL_ON;
 367              		.loc 1 65 3 view .LVU88
  65:Core/Src/main.c ****   RCC_OscInitStruct.PLL.PLLState = RCC_PLL_ON;
 368              		.loc 1 65 30 is_stmt 0 view .LVU89
 369 002e 0E92     		str	r2, [sp, #56]
  66:Core/Src/main.c ****   RCC_OscInitStruct.PLL.PLLSource = RCC_PLLSOURCE_HSE;
 370              		.loc 1 66 3 is_stmt 1 view .LVU90
  66:Core/Src/main.c ****   RCC_OscInitStruct.PLL.PLLSource = RCC_PLLSOURCE_HSE;
 371              		.loc 1 66 34 is_stmt 0 view .LVU91
 372 0030 0222     		movs	r2, #2
 373 0032 1192     		str	r2, [sp, #68]
  67:Core/Src/main.c ****   RCC_OscInitStruct.PLL.PLLMUL = RCC_PLL_MUL6;
 374              		.loc 1 67 3 is_stmt 1 view .LVU92
  67:Core/Src/main.c ****   RCC_OscInitStruct.PLL.PLLMUL = RCC_PLL_MUL6;
 375              		.loc 1 67 35 is_stmt 0 view .LVU93
 376 0034 1293     		str	r3, [sp, #72]
  68:Core/Src/main.c ****   if (HAL_RCC_OscConfig(&RCC_OscInitStruct) != HAL_OK)
 377              		.loc 1 68 3 is_stmt 1 view .LVU94
  68:Core/Src/main.c ****   if (HAL_RCC_OscConfig(&RCC_OscInitStruct) != HAL_OK)
 378              		.loc 1 68 32 is_stmt 0 view .LVU95
 379 0036 4FF48013 		mov	r3, #1048576
 380 003a 1393     		str	r3, [sp, #76]
ARM GAS  /tmp/cctHSjWL.s 			page 14


  69:Core/Src/main.c ****   {
 381              		.loc 1 69 3 is_stmt 1 view .LVU96
  69:Core/Src/main.c ****   {
 382              		.loc 1 69 7 is_stmt 0 view .LVU97
 383 003c 2046     		mov	r0, r4
 384 003e FFF7FEFF 		bl	HAL_RCC_OscConfig
 385              	.LVL12:
  69:Core/Src/main.c ****   {
 386              		.loc 1 69 6 discriminator 1 view .LVU98
 387 0042 C8B9     		cbnz	r0, .L31
  76:Core/Src/main.c ****                               |RCC_CLOCKTYPE_PCLK1|RCC_CLOCKTYPE_PCLK2;
 388              		.loc 1 76 3 is_stmt 1 view .LVU99
  76:Core/Src/main.c ****                               |RCC_CLOCKTYPE_PCLK1|RCC_CLOCKTYPE_PCLK2;
 389              		.loc 1 76 31 is_stmt 0 view .LVU100
 390 0044 0F23     		movs	r3, #15
 391 0046 0593     		str	r3, [sp, #20]
  78:Core/Src/main.c ****   RCC_ClkInitStruct.AHBCLKDivider = RCC_SYSCLK_DIV1;
 392              		.loc 1 78 3 is_stmt 1 view .LVU101
  78:Core/Src/main.c ****   RCC_ClkInitStruct.AHBCLKDivider = RCC_SYSCLK_DIV1;
 393              		.loc 1 78 34 is_stmt 0 view .LVU102
 394 0048 0223     		movs	r3, #2
 395 004a 0693     		str	r3, [sp, #24]
  79:Core/Src/main.c ****   RCC_ClkInitStruct.APB1CLKDivider = RCC_HCLK_DIV2;
 396              		.loc 1 79 3 is_stmt 1 view .LVU103
  79:Core/Src/main.c ****   RCC_ClkInitStruct.APB1CLKDivider = RCC_HCLK_DIV2;
 397              		.loc 1 79 35 is_stmt 0 view .LVU104
 398 004c 0023     		movs	r3, #0
 399 004e 0793     		str	r3, [sp, #28]
  80:Core/Src/main.c ****   RCC_ClkInitStruct.APB2CLKDivider = RCC_HCLK_DIV1;
 400              		.loc 1 80 3 is_stmt 1 view .LVU105
  80:Core/Src/main.c ****   RCC_ClkInitStruct.APB2CLKDivider = RCC_HCLK_DIV1;
 401              		.loc 1 80 36 is_stmt 0 view .LVU106
 402 0050 4FF48062 		mov	r2, #1024
 403 0054 0892     		str	r2, [sp, #32]
  81:Core/Src/main.c **** 
 404              		.loc 1 81 3 is_stmt 1 view .LVU107
  81:Core/Src/main.c **** 
 405              		.loc 1 81 36 is_stmt 0 view .LVU108
 406 0056 0993     		str	r3, [sp, #36]
  83:Core/Src/main.c ****   {
 407              		.loc 1 83 3 is_stmt 1 view .LVU109
  83:Core/Src/main.c ****   {
 408              		.loc 1 83 7 is_stmt 0 view .LVU110
 409 0058 0121     		movs	r1, #1
 410 005a 05A8     		add	r0, sp, #20
 411 005c FFF7FEFF 		bl	HAL_RCC_ClockConfig
 412              	.LVL13:
  83:Core/Src/main.c ****   {
 413              		.loc 1 83 6 discriminator 1 view .LVU111
 414 0060 60B9     		cbnz	r0, .L32
  87:Core/Src/main.c ****   PeriphClkInit.UsbClockSelection = RCC_USBCLKSOURCE_PLL;
 415              		.loc 1 87 3 is_stmt 1 view .LVU112
  87:Core/Src/main.c ****   PeriphClkInit.UsbClockSelection = RCC_USBCLKSOURCE_PLL;
 416              		.loc 1 87 38 is_stmt 0 view .LVU113
 417 0062 1023     		movs	r3, #16
 418 0064 0193     		str	r3, [sp, #4]
  88:Core/Src/main.c ****   if (HAL_RCCEx_PeriphCLKConfig(&PeriphClkInit) != HAL_OK)
ARM GAS  /tmp/cctHSjWL.s 			page 15


 419              		.loc 1 88 3 is_stmt 1 view .LVU114
  88:Core/Src/main.c ****   if (HAL_RCCEx_PeriphCLKConfig(&PeriphClkInit) != HAL_OK)
 420              		.loc 1 88 35 is_stmt 0 view .LVU115
 421 0066 4FF48003 		mov	r3, #4194304
 422 006a 0493     		str	r3, [sp, #16]
  89:Core/Src/main.c ****   {
 423              		.loc 1 89 3 is_stmt 1 view .LVU116
  89:Core/Src/main.c ****   {
 424              		.loc 1 89 7 is_stmt 0 view .LVU117
 425 006c 01A8     		add	r0, sp, #4
 426 006e FFF7FEFF 		bl	HAL_RCCEx_PeriphCLKConfig
 427              	.LVL14:
  89:Core/Src/main.c ****   {
 428              		.loc 1 89 6 discriminator 1 view .LVU118
 429 0072 28B9     		cbnz	r0, .L33
  93:Core/Src/main.c **** 
 430              		.loc 1 93 1 view .LVU119
 431 0074 14B0     		add	sp, sp, #80
 432              	.LCFI11:
 433              		.cfi_remember_state
 434              		.cfi_def_cfa_offset 8
 435              		@ sp needed
 436 0076 10BD     		pop	{r4, pc}
 437              	.L31:
 438              	.LCFI12:
 439              		.cfi_restore_state
  71:Core/Src/main.c ****   }
 440              		.loc 1 71 5 is_stmt 1 view .LVU120
 441 0078 FFF7FEFF 		bl	Error_Handler
 442              	.LVL15:
 443              	.L32:
  85:Core/Src/main.c ****   }
 444              		.loc 1 85 5 view .LVU121
 445 007c FFF7FEFF 		bl	Error_Handler
 446              	.LVL16:
 447              	.L33:
  91:Core/Src/main.c ****   }
 448              		.loc 1 91 5 view .LVU122
 449 0080 FFF7FEFF 		bl	Error_Handler
 450              	.LVL17:
 451              		.cfi_endproc
 452              	.LFE69:
 454              		.section	.rodata.main.str1.4,"aMS",%progbits,1
 455              		.align	2
 456              	.LC1:
 457 0000 576F726B 		.ascii	"Works!\015\012\000"
 457      73210D0A 
 457      00
 458              		.section	.text.main,"ax",%progbits
 459              		.align	1
 460              		.global	main
 461              		.syntax unified
 462              		.thumb
 463              		.thumb_func
 465              	main:
 466              	.LFB68:
  20:Core/Src/main.c **** 
ARM GAS  /tmp/cctHSjWL.s 			page 16


 467              		.loc 1 20 1 view -0
 468              		.cfi_startproc
 469              		@ Volatile: function does not return.
 470              		@ args = 0, pretend = 0, frame = 0
 471              		@ frame_needed = 0, uses_anonymous_args = 0
 472 0000 08B5     		push	{r3, lr}
 473              	.LCFI13:
 474              		.cfi_def_cfa_offset 8
 475              		.cfi_offset 3, -8
 476              		.cfi_offset 14, -4
  22:Core/Src/main.c ****   SystemClock_Config();
 477              		.loc 1 22 3 view .LVU124
 478 0002 FFF7FEFF 		bl	HAL_Init
 479              	.LVL18:
  23:Core/Src/main.c ****   MX_GPIO_Init();
 480              		.loc 1 23 3 view .LVU125
 481 0006 FFF7FEFF 		bl	SystemClock_Config
 482              	.LVL19:
  24:Core/Src/main.c ****   MX_USB_DEVICE_Init();
 483              		.loc 1 24 3 view .LVU126
 484 000a FFF7FEFF 		bl	MX_GPIO_Init
 485              	.LVL20:
  25:Core/Src/main.c ****   MX_TIM1_Init();
 486              		.loc 1 25 3 view .LVU127
 487 000e FFF7FEFF 		bl	MX_USB_DEVICE_Init
 488              	.LVL21:
  26:Core/Src/main.c **** 
 489              		.loc 1 26 3 view .LVU128
 490 0012 FFF7FEFF 		bl	MX_TIM1_Init
 491              	.LVL22:
  28:Core/Src/main.c **** 
 492              		.loc 1 28 3 view .LVU129
 493 0016 4FF47A70 		mov	r0, #1000
 494 001a FFF7FEFF 		bl	HAL_Delay
 495              	.LVL23:
  30:Core/Src/main.c **** 
 496              		.loc 1 30 3 view .LVU130
 497 001e 0921     		movs	r1, #9
 498 0020 1348     		ldr	r0, .L42
 499 0022 FFF7FEFF 		bl	CDC_Transmit_FS
 500              	.LVL24:
  32:Core/Src/main.c **** 
 501              		.loc 1 32 3 view .LVU131
 502 0026 1348     		ldr	r0, .L42+4
 503 0028 FFF7FEFF 		bl	HAL_TIM_Base_Start_IT
 504              	.LVL25:
 505 002c 1BE0     		b	.L39
 506              	.L36:
  42:Core/Src/main.c ****       }
 507              		.loc 1 42 9 view .LVU132
  42:Core/Src/main.c ****       }
 508              		.loc 1 42 24 is_stmt 0 view .LVU133
 509 002e 124B     		ldr	r3, .L42+8
 510 0030 0122     		movs	r2, #1
 511 0032 1A60     		str	r2, [r3]
 512              	.L35:
  36:Core/Src/main.c ****       // if(string[i]!="\0"){
ARM GAS  /tmp/cctHSjWL.s 			page 17


 513              		.loc 1 36 26 is_stmt 1 view .LVU134
 514 0034 104B     		ldr	r3, .L42+8
 515 0036 1B68     		ldr	r3, [r3]
 516 0038 73B9     		cbnz	r3, .L41
  38:Core/Src/main.c ****         CDC_Transmit_FS((uint8_t*)string[i],1);
 517              		.loc 1 38 7 view .LVU135
  38:Core/Src/main.c ****         CDC_Transmit_FS((uint8_t*)string[i],1);
 518              		.loc 1 38 11 is_stmt 0 view .LVU136
 519 003a 104B     		ldr	r3, .L42+12
 520 003c 1B68     		ldr	r3, [r3]
  38:Core/Src/main.c ****         CDC_Transmit_FS((uint8_t*)string[i],1);
 521              		.loc 1 38 9 view .LVU137
 522 003e 1A2B     		cmp	r3, #26
 523 0040 F5DC     		bgt	.L36
  39:Core/Src/main.c ****         i++;
 524              		.loc 1 39 9 is_stmt 1 view .LVU138
  39:Core/Src/main.c ****         i++;
 525              		.loc 1 39 41 is_stmt 0 view .LVU139
 526 0042 0F4A     		ldr	r2, .L42+16
 527 0044 1268     		ldr	r2, [r2]
  39:Core/Src/main.c ****         i++;
 528              		.loc 1 39 9 view .LVU140
 529 0046 0121     		movs	r1, #1
 530 0048 D05C     		ldrb	r0, [r2, r3]	@ zero_extendqisi2
 531 004a FFF7FEFF 		bl	CDC_Transmit_FS
 532              	.LVL26:
  40:Core/Src/main.c ****       }else{
 533              		.loc 1 40 9 is_stmt 1 view .LVU141
  40:Core/Src/main.c ****       }else{
 534              		.loc 1 40 10 is_stmt 0 view .LVU142
 535 004e 0B4A     		ldr	r2, .L42+12
 536 0050 1368     		ldr	r3, [r2]
 537 0052 0133     		adds	r3, r3, #1
 538 0054 1360     		str	r3, [r2]
 539 0056 EDE7     		b	.L35
 540              	.L41:
  47:Core/Src/main.c ****     HAL_Delay(500);
 541              		.loc 1 47 5 is_stmt 1 view .LVU143
  47:Core/Src/main.c ****     HAL_Delay(500);
 542              		.loc 1 47 20 is_stmt 0 view .LVU144
 543 0058 074B     		ldr	r3, .L42+8
 544 005a 0022     		movs	r2, #0
 545 005c 1A60     		str	r2, [r3]
  48:Core/Src/main.c ****     
 546              		.loc 1 48 5 is_stmt 1 view .LVU145
 547 005e 4FF4FA70 		mov	r0, #500
 548 0062 FFF7FEFF 		bl	HAL_Delay
 549              	.LVL27:
  34:Core/Src/main.c ****     i=0;
 550              		.loc 1 34 9 view .LVU146
 551              	.L39:
  34:Core/Src/main.c ****     i=0;
 552              		.loc 1 34 3 view .LVU147
  35:Core/Src/main.c ****     while(string_finished==0){
 553              		.loc 1 35 5 view .LVU148
  35:Core/Src/main.c ****     while(string_finished==0){
 554              		.loc 1 35 6 is_stmt 0 view .LVU149
ARM GAS  /tmp/cctHSjWL.s 			page 18


 555 0066 054B     		ldr	r3, .L42+12
 556 0068 0022     		movs	r2, #0
 557 006a 1A60     		str	r2, [r3]
  36:Core/Src/main.c ****       // if(string[i]!="\0"){
 558              		.loc 1 36 5 is_stmt 1 view .LVU150
  36:Core/Src/main.c ****       // if(string[i]!="\0"){
 559              		.loc 1 36 10 is_stmt 0 view .LVU151
 560 006c E2E7     		b	.L35
 561              	.L43:
 562 006e 00BF     		.align	2
 563              	.L42:
 564 0070 00000000 		.word	.LC1
 565 0074 00000000 		.word	htim1
 566 0078 00000000 		.word	string_finished
 567 007c 00000000 		.word	i
 568 0080 00000000 		.word	string
 569              		.cfi_endproc
 570              	.LFE68:
 572              		.global	i
 573              		.section	.bss.i,"aw",%nobits
 574              		.align	2
 577              	i:
 578 0000 00000000 		.space	4
 579              		.global	string_finished
 580              		.section	.bss.string_finished,"aw",%nobits
 581              		.align	2
 584              	string_finished:
 585 0000 00000000 		.space	4
 586              		.global	string
 587              		.section	.rodata.str1.4,"aMS",%progbits,1
 588              		.align	2
 589              	.LC2:
 590 0000 57617461 		.ascii	"Watashiwa Yoshikagi kira\015\012\000"
 590      73686977 
 590      6120596F 
 590      7368696B 
 590      61676920 
 591              		.section	.data.string,"aw"
 592              		.align	2
 595              	string:
 596 0000 00000000 		.word	.LC2
 597              		.global	seconds_counter
 598              		.section	.bss.seconds_counter,"aw",%nobits
 599              		.align	2
 602              	seconds_counter:
 603 0000 00000000 		.space	4
 604              		.global	htim1
 605              		.section	.bss.htim1,"aw",%nobits
 606              		.align	2
 609              	htim1:
 610 0000 00000000 		.space	72
 610      00000000 
 610      00000000 
 610      00000000 
 610      00000000 
 611              		.text
 612              	.Letext0:
ARM GAS  /tmp/cctHSjWL.s 			page 19


 613              		.file 3 "/home/aly/cuh/stmEnv/stm32cubeide_2.1.1/plugins/com.st.stm32cube.ide.mcu.externaltools.gn
 614              		.file 4 "/home/aly/cuh/stmEnv/stm32cubeide_2.1.1/plugins/com.st.stm32cube.ide.mcu.externaltools.gn
 615              		.file 5 "Drivers/CMSIS/Device/ST/STM32F1xx/Include/stm32f103xb.h"
 616              		.file 6 "Drivers/STM32F1xx_HAL_Driver/Inc/stm32f1xx_hal_def.h"
 617              		.file 7 "Drivers/STM32F1xx_HAL_Driver/Inc/stm32f1xx_hal_rcc.h"
 618              		.file 8 "Drivers/STM32F1xx_HAL_Driver/Inc/stm32f1xx_hal_rcc_ex.h"
 619              		.file 9 "Drivers/STM32F1xx_HAL_Driver/Inc/stm32f1xx_hal_dma.h"
 620              		.file 10 "Drivers/STM32F1xx_HAL_Driver/Inc/stm32f1xx_hal_tim.h"
 621              		.file 11 "/home/aly/cuh/stmEnv/stm32cubeide_2.1.1/plugins/com.st.stm32cube.ide.mcu.externaltools.g
 622              		.file 12 "Drivers/STM32F1xx_HAL_Driver/Inc/stm32f1xx_hal_tim_ex.h"
 623              		.file 13 "USB_DEVICE/App/usbd_cdc_if.h"
 624              		.file 14 "Drivers/STM32F1xx_HAL_Driver/Inc/stm32f1xx_hal.h"
 625              		.file 15 "USB_DEVICE/App/usb_device.h"
 626              		.file 16 "<built-in>"
ARM GAS  /tmp/cctHSjWL.s 			page 20

